; Function Attrs: mustprogress uwtable
define hidden void @_ZN4cvc58internal4prop10PropEngine22outputIncompleteReasonENS_18UnknownExplanationENS0_6theory12IncompleteIdE(ptr noundef nonnull align 8 dereferenceable(416) %0, i32 noundef %1, i32 noundef %2) local_unnamed_addr #4 align 2 {
  %4 = tail call noundef zeroext i1 @_ZNK4cvc58internal6EnvObj10isOutputOnENS0_7options9OutputTagE(ptr noundef nonnull align 8 dereferenceable(16) %0, i32 noundef 15)
  br i1 %4, label %5, label %36

5:                                                ; preds = %3
  %6 = tail call noundef nonnull align 8 dereferenceable(8) ptr @_ZNK4cvc58internal6EnvObj6outputENS0_7options9OutputTagE(ptr noundef nonnull align 8 dereferenceable(16) %0, i32 noundef 15)
  %7 = tail call noundef nonnull align 8 dereferenceable(8) ptr @_ZSt16__ostream_insertIcSt11char_traitsIcEERSt13basic_ostreamIT_T0_ES6_PKS3_l(ptr noundef nonnull align 8 dereferenceable(8) %6, ptr noundef nonnull @.str.32, i64 noundef 12)
  %8 = tail call noundef nonnull align 8 dereferenceable(8) ptr @_ZNK4cvc58internal6EnvObj6outputENS0_7options9OutputTagE(ptr noundef nonnull align 8 dereferenceable(16) %0, i32 noundef 15)
  %9 = tail call noundef nonnull align 8 dereferenceable(8) ptr @_ZN4cvc5lsERSoNS_18UnknownExplanationE(ptr noundef nonnull align 8 dereferenceable(8) %8, i32 noundef %1)
  %.not = icmp eq i32 %2, 24
  br i1 %.not, label %14, label %10

10:                                               ; preds = %5
  %11 = tail call noundef nonnull align 8 dereferenceable(8) ptr @_ZNK4cvc58internal6EnvObj6outputENS0_7options9OutputTagE(ptr noundef nonnull align 8 dereferenceable(16) %0, i32 noundef 15)
  %12 = tail call noundef nonnull align 8 dereferenceable(8) ptr @_ZSt16__ostream_insertIcSt11char_traitsIcEERSt13basic_ostreamIT_T0_ES6_PKS3_l(ptr noundef nonnull align 8 dereferenceable(8) %11, ptr noundef nonnull @.str.31, i64 noundef 1)
  %13 = tail call noundef nonnull align 8 dereferenceable(8) ptr @_ZN4cvc58internal6theorylsERSoNS1_12IncompleteIdE(ptr noundef nonnull align 8 dereferenceable(8) %11, i32 noundef %2)
  br label %14

14:                                               ; preds = %10, %5
  %15 = tail call noundef nonnull align 8 dereferenceable(8) ptr @_ZNK4cvc58internal6EnvObj6outputENS0_7options9OutputTagE(ptr noundef nonnull align 8 dereferenceable(16) %0, i32 noundef 15)
  %16 = tail call noundef nonnull align 8 dereferenceable(8) ptr @_ZSt16__ostream_insertIcSt11char_traitsIcEERSt13basic_ostreamIT_T0_ES6_PKS3_l(ptr noundef nonnull align 8 dereferenceable(8) %15, ptr noundef nonnull @.str.7, i64 noundef 1)
  %17 = load ptr, ptr %15, align 8, !tbaa !3
  %18 = getelementptr i8, ptr %17, i64 -24
  %19 = load i64, ptr %18, align 8
  %20 = getelementptr inbounds i8, ptr %15, i64 %19
  %21 = getelementptr inbounds nuw i8, ptr %20, i64 240
  %22 = load ptr, ptr %21, align 8, !tbaa !314
  %.not.i.i.i = icmp eq ptr %22, null
  br i1 %.not.i.i.i, label %23, label %_ZSt13__check_facetISt5ctypeIcEERKT_PS3_.exit.i.i

23:                                               ; preds = %14
  tail call void @_ZSt16__throw_bad_castv() #28
  unreachable

_ZSt13__check_facetISt5ctypeIcEERKT_PS3_.exit.i.i: ; preds = %14
  %24 = getelementptr inbounds nuw i8, ptr %22, i64 56
  %25 = load i8, ptr %24, align 8, !tbaa !329
  %.not.i1.i.i = icmp eq i8 %25, 0
  br i1 %.not.i1.i.i, label %29, label %26

26:                                               ; preds = %_ZSt13__check_facetISt5ctypeIcEERKT_PS3_.exit.i.i
  %27 = getelementptr inbounds nuw i8, ptr %22, i64 67
  %28 = load i8, ptr %27, align 1, !tbaa !76
  br label %_ZSt4endlIcSt11char_traitsIcEERSt13basic_ostreamIT_T0_ES6_.exit

29:                                               ; preds = %_ZSt13__check_facetISt5ctypeIcEERKT_PS3_.exit.i.i
  tail call void @_ZNKSt5ctypeIcE13_M_widen_initEv(ptr noundef nonnull align 8 dereferenceable(570) %22)
  %30 = load ptr, ptr %22, align 8, !tbaa !3
  %31 = getelementptr inbounds nuw i8, ptr %30, i64 48
  %32 = load ptr, ptr %31, align 8
  %33 = tail call noundef signext i8 %32(ptr noundef nonnull align 8 dereferenceable(570) %22, i8 noundef signext 10)
  br label %_ZSt4endlIcSt11char_traitsIcEERSt13basic_ostreamIT_T0_ES6_.exit

_ZSt4endlIcSt11char_traitsIcEERSt13basic_ostreamIT_T0_ES6_.exit: ; preds = %26, %29
  %.0.i.i.i = phi i8 [ %28, %26 ], [ %33, %29 ]
  %34 = tail call noundef nonnull align 8 dereferenceable(8) ptr @_ZNSo3putEc(ptr noundef nonnull align 8 dereferenceable(8) %15, i8 noundef signext %.0.i.i.i)
  %35 = tail call noundef nonnull align 8 dereferenceable(8) ptr @_ZNSo5flushEv(ptr noundef nonnull align 8 dereferenceable(8) %34)
  br label %36

36:                                               ; preds = %_ZSt4endlIcSt11char_traitsIcEERSt13basic_ostreamIT_T0_ES6_.exit, %3
  ret void
}